; Function Attrs: mustprogress uwtable
define dso_local void @_ZN8V3Config10applyFTaskEP13AstNodeModuleP12AstNodeFTask(ptr noundef %0, ptr noundef %1) local_unnamed_addr #3 align 2 personality ptr @__gxx_personality_v0 {
  %3 = alloca %"class.std::__cxx11::basic_string", align 8
  %4 = alloca %"class.std::__cxx11::basic_string", align 8
  %5 = load ptr, ptr %0, align 8
  %6 = getelementptr inbounds i8, ptr %5, i64 56
  %7 = load ptr, ptr %6, align 8
  call void %7(ptr dead_on_unwind nonnull writable sret(%"class.std::__cxx11::basic_string") align 8 %3, ptr noundef nonnull align 8 dereferenceable(257) %0)
  %8 = load atomic i8, ptr @_ZGVZN16V3ConfigResolver1sEvE11s_singleton acquire, align 8
  %9 = icmp eq i8 %8, 0
  br i1 %9, label %10, label %_ZN16V3ConfigResolver1sEv.exit, !prof !5

10:                                               ; preds = %2
  %11 = call i32 @__cxa_guard_acquire(ptr nonnull @_ZGVZN16V3ConfigResolver1sEvE11s_singleton) #18
  %.not.i = icmp eq i32 %11, 0
  br i1 %.not.i, label %_ZN16V3ConfigResolver1sEv.exit, label %12

12:                                               ; preds = %10
  call void @_ZN16V3ConfigResolverC2Ev(ptr noundef nonnull align 8 dereferenceable(408) @_ZZN16V3ConfigResolver1sEvE11s_singleton) #18
  %13 = call i32 @__cxa_atexit(ptr nonnull @_ZN16V3ConfigResolverD2Ev, ptr nonnull @_ZZN16V3ConfigResolver1sEvE11s_singleton, ptr nonnull @__dso_handle) #18
  call void @__cxa_guard_release(ptr nonnull @_ZGVZN16V3ConfigResolver1sEvE11s_singleton) #18
  br label %_ZN16V3ConfigResolver1sEv.exit

_ZN16V3ConfigResolver1sEv.exit:                   ; preds = %2, %10, %12
  %14 = invoke noundef ptr @_ZN24V3ConfigWildcardResolverI14V3ConfigModuleE7resolveERKNSt7__cxx1112basic_stringIcSt11char_traitsIcESaIcEEE(ptr noundef nonnull align 8 dereferenceable(136) @_ZZN16V3ConfigResolver1sEvE11s_singleton, ptr noundef nonnull align 8 dereferenceable(32) %3)
          to label %15 unwind label %16

15:                                               ; preds = %_ZN16V3ConfigResolver1sEv.exit
  %.not = icmp eq ptr %14, null
  br i1 %.not, label %28, label %18

16:                                               ; preds = %25, %18, %_ZN16V3ConfigResolver1sEv.exit
  %17 = landingpad { ptr, i32 }
          cleanup
  br label %29

18:                                               ; preds = %15
  %19 = load ptr, ptr %1, align 8
  %20 = getelementptr inbounds i8, ptr %19, i64 56
  %21 = load ptr, ptr %20, align 8
  invoke void %21(ptr dead_on_unwind nonnull writable sret(%"class.std::__cxx11::basic_string") align 8 %4, ptr noundef nonnull align 8 dereferenceable(240) %1)
          to label %22 unwind label %16

22:                                               ; preds = %18
  %23 = invoke noundef ptr @_ZN24V3ConfigWildcardResolverI13V3ConfigFTaskE7resolveERKNSt7__cxx1112basic_stringIcSt11char_traitsIcESaIcEEE(ptr noundef nonnull align 8 dereferenceable(136) %14, ptr noundef nonnull align 8 dereferenceable(32) %4)
          to label %24 unwind label %26

24:                                               ; preds = %22
  call void @_ZNSt7__cxx1112basic_stringIcSt11char_traitsIcESaIcEED1Ev(ptr noundef nonnull align 8 dereferenceable(32) %4) #18
  %.not12 = icmp eq ptr %23, null
  br i1 %.not12, label %28, label %25

25:                                               ; preds = %24
  invoke void @_ZNK13V3ConfigFTask5applyEP12AstNodeFTask(ptr noundef nonnull align 8 dereferenceable(144) %23, ptr noundef nonnull %1)
          to label %28 unwind label %16

26:                                               ; preds = %22
  %27 = landingpad { ptr, i32 }
          cleanup
  call void @_ZNSt7__cxx1112basic_stringIcSt11char_traitsIcESaIcEED1Ev(ptr noundef nonnull align 8 dereferenceable(32) %4) #18
  br label %29

28:                                               ; preds = %24, %25, %15
  call void @_ZNSt7__cxx1112basic_stringIcSt11char_traitsIcESaIcEED1Ev(ptr noundef nonnull align 8 dereferenceable(32) %3) #18
  ret void

29:                                               ; preds = %26, %16
  %.pn = phi { ptr, i32 } [ %17, %16 ], [ %27, %26 ]
  call void @_ZNSt7__cxx1112basic_stringIcSt11char_traitsIcESaIcEED1Ev(ptr noundef nonnull align 8 dereferenceable(32) %3) #18
  resume { ptr, i32 } %.pn
}